target datalayout = "e-m:e-p270:32:32-p271:32:32-p272:64:64-i64:64-i128:128-f80:128-n8:16:32:64-S128"
target triple = "x86_64-pc-linux-gnu"

%struct.AVFilterContext = type { ptr, ptr, ptr, ptr, ptr, i32, ptr, ptr, i32, ptr, ptr, i32, i32, ptr, ptr, ptr, ptr, i32, ptr, i32, i32 }
%struct.AudioDynamicEqualizerContext = type { ptr, double, double, double, double, double, double, double, double, double, double, double, double, double, double, double, i32, i32, i32, i32, i32, i32, i32, ptr, ptr, [3 x double], [3 x double], [3 x float], [3 x float], ptr }
%struct.ChannelContext = type { [3 x double], [3 x double], [2 x double], [2 x double], [2 x double], double, double, double, double, double, double, [3 x float], [3 x float], [2 x float], [2 x float], [2 x float], float, float, float, float, float, float, ptr, ptr, i32, i32, i32, i32, i32, i32 }

; Function Attrs: cold nounwind optsize uwtable
define internal void @uninit(ptr noundef %0) #0 {
  %2 = alloca ptr, align 8
  %3 = alloca ptr, align 8
  %4 = alloca i32, align 4
  %5 = alloca ptr, align 8
  store ptr %0, ptr %2, align 8, !tbaa !4
  call void @llvm.lifetime.start.p0(i64 8, ptr %3) #8
  %6 = load ptr, ptr %2, align 8, !tbaa !4
  %7 = getelementptr inbounds nuw %struct.AVFilterContext, ptr %6, i32 0, i32 9
  %8 = load ptr, ptr %7, align 8, !tbaa !9
  store ptr %8, ptr %3, align 8, !tbaa !22
  call void @llvm.lifetime.start.p0(i64 4, ptr %4) #8
  store i32 0, ptr %4, align 4, !tbaa !24
  br label %9

9:                                                ; preds = %27, %1
  %10 = load i32, ptr %4, align 4, !tbaa !24
  %11 = load ptr, ptr %3, align 8, !tbaa !22
  %12 = getelementptr inbounds nuw %struct.AudioDynamicEqualizerContext, ptr %11, i32 0, i32 22
  %13 = load i32, ptr %12, align 8, !tbaa !25
  %14 = icmp slt i32 %10, %13
  br i1 %14, label %16, label %15

15:                                               ; preds = %9
  call void @llvm.lifetime.end.p0(i64 4, ptr %4) #8
  br label %30

16:                                               ; preds = %9
  call void @llvm.lifetime.start.p0(i64 8, ptr %5) #8
  %17 = load ptr, ptr %3, align 8, !tbaa !22
  %18 = getelementptr inbounds nuw %struct.AudioDynamicEqualizerContext, ptr %17, i32 0, i32 29
  %19 = load ptr, ptr %18, align 8, !tbaa !29
  %20 = load i32, ptr %4, align 4, !tbaa !24
  %21 = sext i32 %20 to i64
  %22 = getelementptr inbounds %struct.ChannelContext, ptr %19, i64 %21
  store ptr %22, ptr %5, align 8, !tbaa !30
  %23 = load ptr, ptr %5, align 8, !tbaa !30
  %24 = getelementptr inbounds nuw %struct.ChannelContext, ptr %23, i32 0, i32 23
  call void @av_freep(ptr noundef %24)
  %25 = load ptr, ptr %5, align 8, !tbaa !30
  %26 = getelementptr inbounds nuw %struct.ChannelContext, ptr %25, i32 0, i32 22
  call void @av_freep(ptr noundef %26)
  call void @llvm.lifetime.end.p0(i64 8, ptr %5) #8
  br label %27

27:                                               ; preds = %16
  %28 = load i32, ptr %4, align 4, !tbaa !24
  %29 = add nsw i32 %28, 1
  store i32 %29, ptr %4, align 4, !tbaa !24
  br label %9, !llvm.loop !31

30:                                               ; preds = %15
  %31 = load ptr, ptr %3, align 8, !tbaa !22
  %32 = getelementptr inbounds nuw %struct.AudioDynamicEqualizerContext, ptr %31, i32 0, i32 29
  call void @av_freep(ptr noundef %32)
  call void @llvm.lifetime.end.p0(i64 8, ptr %3) #8
  ret void
}