; Function Attrs: cold nounwind optsize uwtable
define internal void @uninit(ptr noundef readonly captures(none) %0) #0 {
  %2 = getelementptr inbounds nuw i8, ptr %0, i64 72
  %3 = load ptr, ptr %2, align 8, !tbaa !4
  %4 = getelementptr inbounds nuw i8, ptr %3, i64 152
  %5 = load i32, ptr %4, align 8, !tbaa !20
  %6 = icmp sgt i32 %5, 0
  br i1 %6, label %.lr.ph, label %._crit_edge

.lr.ph:                                           ; preds = %1
  %7 = getelementptr inbounds nuw i8, ptr %3, i64 248
  br label %9

._crit_edge:                                      ; preds = %9, %1
  %8 = getelementptr inbounds nuw i8, ptr %3, i64 248
  tail call void @av_freep(ptr noundef nonnull %8) #10
  ret void

9:                                                ; preds = %.lr.ph, %9
  %indvars.iv = phi i64 [ 0, %.lr.ph ], [ %indvars.iv.next, %9 ]
  %10 = load ptr, ptr %7, align 8, !tbaa !24
  %11 = getelementptr inbounds nuw %struct.ChannelContext, ptr %10, i64 %indvars.iv
  %12 = getelementptr inbounds nuw i8, ptr %11, i64 224
  tail call void @av_freep(ptr noundef nonnull %12) #10
  %13 = getelementptr inbounds nuw i8, ptr %11, i64 216
  tail call void @av_freep(ptr noundef nonnull %13) #10
  %indvars.iv.next = add nuw nsw i64 %indvars.iv, 1
  %14 = load i32, ptr %4, align 8, !tbaa !20
  %15 = sext i32 %14 to i64
  %16 = icmp slt i64 %indvars.iv.next, %15
  br i1 %16, label %9, label %._crit_edge, !llvm.loop !25
}